target datalayout = "e-m:e-p270:32:32-p271:32:32-p272:64:64-i64:64-i128:128-f80:128-n8:16:32:64-S128"
target triple = "x86_64-pc-linux-gnu"

%struct.ssl_connection_st = type { %struct.ssl_st, ptr, i32, ptr, ptr, ptr, i32, ptr, i32, i32, i32, i32, %struct.OSSL_TIME, %struct.OSSL_TIME, %struct.ossl_statem_st, i32, ptr, ptr, i64, i64, i64, %struct.ossl_quic_tls_callbacks_st, ptr, ptr, %struct.anon, ptr, ptr, ptr, i32, ptr, %struct.ssl_dane_st, ptr, ptr, ptr, ptr, i32, [64 x i8], [64 x i8], [64 x i8], [64 x i8], [64 x i8], [64 x i8], [64 x i8], [64 x i8], [64 x i8], [64 x i8], [64 x i8], [64 x i8], ptr, [64 x i8], i64, i32, i64, [32 x i8], ptr, ptr, ptr, i64, ptr, [32 x i8], i64, i32, ptr, ptr, i32, i32, ptr, ptr, ptr, ptr, ptr, i64, ptr, ptr, i64, i32, i32, i32, i64, i32, i32, i64, i64, i64, %struct.anon.1, ptr, i32, ptr, ptr, ptr, i32, ptr, ptr, ptr, i32, i32, i32, i32, ptr, i64, i32, ptr, %struct.srp_ctx_st, ptr, %struct.record_layer_st, ptr, ptr, ptr, ptr, i64, i32, i32, i32, i64, i64, i64, ptr, ptr, ptr, ptr, ptr, i64, ptr, i64, ptr, i64 }
%struct.ssl_st = type { i32, ptr, ptr, ptr, %struct.CRYPTO_REF_COUNT, ptr, %struct.crypto_ex_data_st }
%struct.CRYPTO_REF_COUNT = type { i32 }
%struct.crypto_ex_data_st = type { ptr, ptr }
%struct.OSSL_TIME = type { i64 }
%struct.ossl_statem_st = type { i32, i32, i32, i32, i32, i32, i32, i32, i32, i32, i32, i32, i32, ptr, ptr, ptr, i8 }
%struct.ossl_quic_tls_callbacks_st = type { ptr, ptr, ptr, ptr, ptr, ptr }
%struct.anon = type { i64, [32 x i8], [32 x i8], ptr, ptr, i32, i32, i32, i32, [2 x i8], i32, i32, i32, i32, %struct.anon.0, [64 x i8], i64, [64 x i8], i64, i32, i32, ptr, i64, ptr, i64, i32, i8, i8, i16, ptr, i16 }
%struct.anon.0 = type { [128 x i8], i64, [128 x i8], i64, i64, i32, ptr, ptr, [4 x ptr], [4 x i16], i64, i32, ptr, i64, ptr, i64, ptr, ptr, ptr, i32, i64, ptr, i32, ptr, i64, ptr, i64, ptr, i64, ptr, ptr, ptr, ptr, i64, i64, ptr, ptr, i32, i32, i32, i32 }
%struct.ssl_dane_st = type { ptr, ptr, ptr, ptr, ptr, i32, i32, i32, i64 }
%struct.anon.1 = type { [29 x i8], ptr, ptr, ptr, i32, ptr, i16, i32, %struct.anon.2, i32, i32, i64, ptr, i64, ptr, i64, ptr, i64, ptr, i64, ptr, i64, ptr, ptr, ptr, ptr, ptr, ptr, ptr, i64, ptr, i64, i32, i32, i32, i32, ptr, i64, i32, i8, i32, [4 x i32], i32, i8, i8, i8, i8 }
%struct.anon.2 = type { ptr, ptr, ptr, i64 }
%struct.srp_ctx_st = type { ptr, ptr, ptr, ptr, ptr, ptr, ptr, ptr, ptr, ptr, ptr, ptr, ptr, ptr, i32, i64 }
%struct.record_layer_st = type { ptr, ptr, ptr, ptr, ptr, ptr, ptr, ptr, i64, i32, i64, [4 x i8], i64, i64, i8, ptr, i32, ptr, ptr, ptr, i64, i64, i64, i64, [32 x %struct.tls_record_st] }
%struct.tls_record_st = type { ptr, i32, i8, ptr, ptr, i64, i64, i16, [8 x i8] }

@.str.1 = private unnamed_addr constant [36 x i8] c"../openssl/ssl/statem/statem_srvr.c\00", align 1
@__func__.ossl_statem_server_process_message = private unnamed_addr constant [35 x i8] c"ossl_statem_server_process_message\00", align 1

; Function Attrs: nounwind uwtable
define i32 @ossl_statem_server_process_message(ptr noundef %0, ptr noundef %1) #0 {
  %3 = alloca i32, align 4
  %4 = alloca ptr, align 8
  %5 = alloca ptr, align 8
  %6 = alloca ptr, align 8
  %7 = alloca i32, align 4
  store ptr %0, ptr %4, align 8, !tbaa !11
  store ptr %1, ptr %5, align 8, !tbaa !3
  call void @llvm.lifetime.start.p0(i64 8, ptr %6) #9
  %8 = load ptr, ptr %4, align 8, !tbaa !11
  %9 = getelementptr inbounds nuw %struct.ssl_connection_st, ptr %8, i32 0, i32 14
  store ptr %9, ptr %6, align 8, !tbaa !15
  %10 = load ptr, ptr %6, align 8, !tbaa !15
  %11 = getelementptr inbounds nuw %struct.ossl_statem_st, ptr %10, i32 0, i32 5
  %12 = load i32, ptr %11, align 4, !tbaa !83
  switch i32 %12, label %13 [
    i32 22, label %15
    i32 53, label %19
    i32 30, label %23
    i32 32, label %27
    i32 33, label %31
    i32 34, label %35
    i32 35, label %39
    i32 36, label %43
    i32 48, label %47
  ]

13:                                               ; preds = %2
  call void @ERR_new()
  call void @ERR_set_debug(ptr noundef @.str.1, i32 noundef 1272, ptr noundef @__func__.ossl_statem_server_process_message)
  %14 = load ptr, ptr %4, align 8, !tbaa !11
  call void (ptr, i32, i32, ptr, ...) @ossl_statem_fatal(ptr noundef %14, i32 noundef 80, i32 noundef 786691, ptr noundef null)
  store i32 0, ptr %3, align 4
  store i32 1, ptr %7, align 4
  br label %51

15:                                               ; preds = %2
  %16 = load ptr, ptr %4, align 8, !tbaa !11
  %17 = load ptr, ptr %5, align 8, !tbaa !3
  %18 = call i32 @tls_process_client_hello(ptr noundef %16, ptr noundef %17)
  store i32 %18, ptr %3, align 4
  store i32 1, ptr %7, align 4
  br label %51

19:                                               ; preds = %2
  %20 = load ptr, ptr %4, align 8, !tbaa !11
  %21 = load ptr, ptr %5, align 8, !tbaa !3
  %22 = call i32 @tls_process_end_of_early_data(ptr noundef %20, ptr noundef %21)
  store i32 %22, ptr %3, align 4
  store i32 1, ptr %7, align 4
  br label %51

23:                                               ; preds = %2
  %24 = load ptr, ptr %4, align 8, !tbaa !11
  %25 = load ptr, ptr %5, align 8, !tbaa !3
  %26 = call i32 @tls_process_client_certificate(ptr noundef %24, ptr noundef %25)
  store i32 %26, ptr %3, align 4
  store i32 1, ptr %7, align 4
  br label %51

27:                                               ; preds = %2
  %28 = load ptr, ptr %4, align 8, !tbaa !11
  %29 = load ptr, ptr %5, align 8, !tbaa !3
  %30 = call i32 @tls_process_client_key_exchange(ptr noundef %28, ptr noundef %29)
  store i32 %30, ptr %3, align 4
  store i32 1, ptr %7, align 4
  br label %51

31:                                               ; preds = %2
  %32 = load ptr, ptr %4, align 8, !tbaa !11
  %33 = load ptr, ptr %5, align 8, !tbaa !3
  %34 = call i32 @tls_process_cert_verify(ptr noundef %32, ptr noundef %33)
  store i32 %34, ptr %3, align 4
  store i32 1, ptr %7, align 4
  br label %51

35:                                               ; preds = %2
  %36 = load ptr, ptr %4, align 8, !tbaa !11
  %37 = load ptr, ptr %5, align 8, !tbaa !3
  %38 = call i32 @tls_process_next_proto(ptr noundef %36, ptr noundef %37)
  store i32 %38, ptr %3, align 4
  store i32 1, ptr %7, align 4
  br label %51

39:                                               ; preds = %2
  %40 = load ptr, ptr %4, align 8, !tbaa !11
  %41 = load ptr, ptr %5, align 8, !tbaa !3
  %42 = call i32 @tls_process_change_cipher_spec(ptr noundef %40, ptr noundef %41)
  store i32 %42, ptr %3, align 4
  store i32 1, ptr %7, align 4
  br label %51

43:                                               ; preds = %2
  %44 = load ptr, ptr %4, align 8, !tbaa !11
  %45 = load ptr, ptr %5, align 8, !tbaa !3
  %46 = call i32 @tls_process_finished(ptr noundef %44, ptr noundef %45)
  store i32 %46, ptr %3, align 4
  store i32 1, ptr %7, align 4
  br label %51

47:                                               ; preds = %2
  %48 = load ptr, ptr %4, align 8, !tbaa !11
  %49 = load ptr, ptr %5, align 8, !tbaa !3
  %50 = call i32 @tls_process_key_update(ptr noundef %48, ptr noundef %49)
  store i32 %50, ptr %3, align 4
  store i32 1, ptr %7, align 4
  br label %51

51:                                               ; preds = %47, %43, %39, %35, %31, %27, %23, %19, %15, %13
  call void @llvm.lifetime.end.p0(i64 8, ptr %6) #9
  %52 = load i32, ptr %3, align 4
  ret i32 %52
}