; Function Attrs: nounwind uwtable
define i32 @ossl_statem_server_process_message(ptr noundef %0, ptr noundef %1) local_unnamed_addr #1 {
  %3 = getelementptr inbounds nuw i8, ptr %0, i64 172
  %4 = load i32, ptr %3, align 4, !tbaa !75
  switch i32 %4, label %5 [
    i32 22, label %6
    i32 53, label %8
    i32 30, label %10
    i32 32, label %12
    i32 33, label %14
    i32 34, label %16
    i32 35, label %18
    i32 36, label %20
    i32 48, label %22
  ]

5:                                                ; preds = %2
  tail call void @ERR_new() #12
  tail call void @ERR_set_debug(ptr noundef nonnull @.str.1, i32 noundef 1272, ptr noundef nonnull @__func__.ossl_statem_server_process_message) #12
  tail call void (ptr, i32, i32, ptr, ...) @ossl_statem_fatal(ptr noundef nonnull %0, i32 noundef 80, i32 noundef 786691, ptr noundef null) #12
  br label %24

6:                                                ; preds = %2
  %7 = tail call i32 @tls_process_client_hello(ptr noundef nonnull %0, ptr noundef %1)
  br label %24

8:                                                ; preds = %2
  %9 = tail call i32 @tls_process_end_of_early_data(ptr noundef nonnull %0, ptr noundef %1)
  br label %24

10:                                               ; preds = %2
  %11 = tail call i32 @tls_process_client_certificate(ptr noundef nonnull %0, ptr noundef %1)
  br label %24

12:                                               ; preds = %2
  %13 = tail call i32 @tls_process_client_key_exchange(ptr noundef nonnull %0, ptr noundef %1)
  br label %24

14:                                               ; preds = %2
  %15 = tail call i32 @tls_process_cert_verify(ptr noundef nonnull %0, ptr noundef %1) #12
  br label %24

16:                                               ; preds = %2
  %17 = tail call i32 @tls_process_next_proto(ptr noundef nonnull %0, ptr noundef %1)
  br label %24

18:                                               ; preds = %2
  %19 = tail call i32 @tls_process_change_cipher_spec(ptr noundef nonnull %0, ptr noundef %1) #12
  br label %24

20:                                               ; preds = %2
  %21 = tail call i32 @tls_process_finished(ptr noundef nonnull %0, ptr noundef %1) #12
  br label %24

22:                                               ; preds = %2
  %23 = tail call i32 @tls_process_key_update(ptr noundef nonnull %0, ptr noundef %1) #12
  br label %24

24:                                               ; preds = %22, %20, %18, %16, %14, %12, %10, %8, %6, %5
  %.0 = phi i32 [ 0, %5 ], [ %23, %22 ], [ %21, %20 ], [ %19, %18 ], [ %17, %16 ], [ %15, %14 ], [ %13, %12 ], [ %11, %10 ], [ %9, %8 ], [ %7, %6 ]
  ret i32 %.0
}